target datalayout = "e-m:e-p270:32:32-p271:32:32-p272:64:64-i64:64-i128:128-f80:128-n8:16:32:64-S128"
target triple = "x86_64-pc-linux-gnu"

%struct.mbedtls_psa_hash_operation_t = type { i32, %union.anon }
%union.anon = type { %struct.mbedtls_sha512_context }
%struct.mbedtls_sha512_context = type { [2 x i64], [8 x i64], [128 x i8], i32 }

; Function Attrs: nounwind uwtable
define hidden i32 @mbedtls_psa_hash_finish(ptr noundef %0, ptr noundef %1, i64 noundef %2, ptr noundef %3) #0 {
  %5 = alloca i32, align 4
  %6 = alloca ptr, align 8
  %7 = alloca ptr, align 8
  %8 = alloca i64, align 8
  %9 = alloca ptr, align 8
  %10 = alloca i32, align 4
  %11 = alloca i32, align 4
  %12 = alloca i64, align 8
  %13 = alloca i32, align 4
  store ptr %0, ptr %6, align 8, !tbaa !3
  store ptr %1, ptr %7, align 8, !tbaa !11
  store i64 %2, ptr %8, align 8, !tbaa !13
  store ptr %3, ptr %9, align 8, !tbaa !15
  call void @llvm.lifetime.start.p0(i64 4, ptr %10) #4
  call void @llvm.lifetime.start.p0(i64 4, ptr %11) #4
  store i32 -110, ptr %11, align 4, !tbaa !10
  call void @llvm.lifetime.start.p0(i64 8, ptr %12) #4
  %14 = load ptr, ptr %6, align 8, !tbaa !3
  %15 = getelementptr inbounds nuw %struct.mbedtls_psa_hash_operation_t, ptr %14, i32 0, i32 0
  %16 = load i32, ptr %15, align 8, !tbaa !7
  %17 = and i32 %16, 255
  %18 = or i32 33554432, %17
  %19 = icmp eq i32 %18, 33554435
  br i1 %19, label %20, label %21

20:                                               ; preds = %4
  br label %139

21:                                               ; preds = %4
  %22 = load ptr, ptr %6, align 8, !tbaa !3
  %23 = getelementptr inbounds nuw %struct.mbedtls_psa_hash_operation_t, ptr %22, i32 0, i32 0
  %24 = load i32, ptr %23, align 8, !tbaa !7
  %25 = and i32 %24, 255
  %26 = or i32 33554432, %25
  %27 = icmp eq i32 %26, 33554436
  br i1 %27, label %28, label %29

28:                                               ; preds = %21
  br label %137

29:                                               ; preds = %21
  %30 = load ptr, ptr %6, align 8, !tbaa !3
  %31 = getelementptr inbounds nuw %struct.mbedtls_psa_hash_operation_t, ptr %30, i32 0, i32 0
  %32 = load i32, ptr %31, align 8, !tbaa !7
  %33 = and i32 %32, 255
  %34 = or i32 33554432, %33
  %35 = icmp eq i32 %34, 33554437
  br i1 %35, label %36, label %37

36:                                               ; preds = %29
  br label %135

37:                                               ; preds = %29
  %38 = load ptr, ptr %6, align 8, !tbaa !3
  %39 = getelementptr inbounds nuw %struct.mbedtls_psa_hash_operation_t, ptr %38, i32 0, i32 0
  %40 = load i32, ptr %39, align 8, !tbaa !7
  %41 = and i32 %40, 255
  %42 = or i32 33554432, %41
  %43 = icmp eq i32 %42, 33554440
  br i1 %43, label %44, label %45

44:                                               ; preds = %37
  br label %133

45:                                               ; preds = %37
  %46 = load ptr, ptr %6, align 8, !tbaa !3
  %47 = getelementptr inbounds nuw %struct.mbedtls_psa_hash_operation_t, ptr %46, i32 0, i32 0
  %48 = load i32, ptr %47, align 8, !tbaa !7
  %49 = and i32 %48, 255
  %50 = or i32 33554432, %49
  %51 = icmp eq i32 %50, 33554441
  br i1 %51, label %52, label %53

52:                                               ; preds = %45
  br label %131

53:                                               ; preds = %45
  %54 = load ptr, ptr %6, align 8, !tbaa !3
  %55 = getelementptr inbounds nuw %struct.mbedtls_psa_hash_operation_t, ptr %54, i32 0, i32 0
  %56 = load i32, ptr %55, align 8, !tbaa !7
  %57 = and i32 %56, 255
  %58 = or i32 33554432, %57
  %59 = icmp eq i32 %58, 33554442
  br i1 %59, label %60, label %61

60:                                               ; preds = %53
  br label %129

61:                                               ; preds = %53
  %62 = load ptr, ptr %6, align 8, !tbaa !3
  %63 = getelementptr inbounds nuw %struct.mbedtls_psa_hash_operation_t, ptr %62, i32 0, i32 0
  %64 = load i32, ptr %63, align 8, !tbaa !7
  %65 = and i32 %64, 255
  %66 = or i32 33554432, %65
  %67 = icmp eq i32 %66, 33554443
  br i1 %67, label %68, label %69

68:                                               ; preds = %61
  br label %127

69:                                               ; preds = %61
  %70 = load ptr, ptr %6, align 8, !tbaa !3
  %71 = getelementptr inbounds nuw %struct.mbedtls_psa_hash_operation_t, ptr %70, i32 0, i32 0
  %72 = load i32, ptr %71, align 8, !tbaa !7
  %73 = and i32 %72, 255
  %74 = or i32 33554432, %73
  %75 = icmp eq i32 %74, 33554444
  br i1 %75, label %76, label %77

76:                                               ; preds = %69
  br label %125

77:                                               ; preds = %69
  %78 = load ptr, ptr %6, align 8, !tbaa !3
  %79 = getelementptr inbounds nuw %struct.mbedtls_psa_hash_operation_t, ptr %78, i32 0, i32 0
  %80 = load i32, ptr %79, align 8, !tbaa !7
  %81 = and i32 %80, 255
  %82 = or i32 33554432, %81
  %83 = icmp eq i32 %82, 33554445
  br i1 %83, label %84, label %85

84:                                               ; preds = %77
  br label %123

85:                                               ; preds = %77
  %86 = load ptr, ptr %6, align 8, !tbaa !3
  %87 = getelementptr inbounds nuw %struct.mbedtls_psa_hash_operation_t, ptr %86, i32 0, i32 0
  %88 = load i32, ptr %87, align 8, !tbaa !7
  %89 = and i32 %88, 255
  %90 = or i32 33554432, %89
  %91 = icmp eq i32 %90, 33554448
  br i1 %91, label %92, label %93

92:                                               ; preds = %85
  br label %121

93:                                               ; preds = %85
  %94 = load ptr, ptr %6, align 8, !tbaa !3
  %95 = getelementptr inbounds nuw %struct.mbedtls_psa_hash_operation_t, ptr %94, i32 0, i32 0
  %96 = load i32, ptr %95, align 8, !tbaa !7
  %97 = and i32 %96, 255
  %98 = or i32 33554432, %97
  %99 = icmp eq i32 %98, 33554449
  br i1 %99, label %100, label %101

100:                                              ; preds = %93
  br label %119

101:                                              ; preds = %93
  %102 = load ptr, ptr %6, align 8, !tbaa !3
  %103 = getelementptr inbounds nuw %struct.mbedtls_psa_hash_operation_t, ptr %102, i32 0, i32 0
  %104 = load i32, ptr %103, align 8, !tbaa !7
  %105 = and i32 %104, 255
  %106 = or i32 33554432, %105
  %107 = icmp eq i32 %106, 33554450
  br i1 %107, label %108, label %109

108:                                              ; preds = %101
  br label %117

109:                                              ; preds = %101
  %110 = load ptr, ptr %6, align 8, !tbaa !3
  %111 = getelementptr inbounds nuw %struct.mbedtls_psa_hash_operation_t, ptr %110, i32 0, i32 0
  %112 = load i32, ptr %111, align 8, !tbaa !7
  %113 = and i32 %112, 255
  %114 = or i32 33554432, %113
  %115 = icmp eq i32 %114, 33554451
  %116 = select i1 %115, i32 64, i32 0
  br label %117

117:                                              ; preds = %109, %108
  %118 = phi i32 [ 48, %108 ], [ %116, %109 ]
  br label %119

119:                                              ; preds = %117, %100
  %120 = phi i32 [ 32, %100 ], [ %118, %117 ]
  br label %121

121:                                              ; preds = %119, %92
  %122 = phi i32 [ 28, %92 ], [ %120, %119 ]
  br label %123

123:                                              ; preds = %121, %84
  %124 = phi i32 [ 32, %84 ], [ %122, %121 ]
  br label %125

125:                                              ; preds = %123, %76
  %126 = phi i32 [ 28, %76 ], [ %124, %123 ]
  br label %127

127:                                              ; preds = %125, %68
  %128 = phi i32 [ 64, %68 ], [ %126, %125 ]
  br label %129

129:                                              ; preds = %127, %60
  %130 = phi i32 [ 48, %60 ], [ %128, %127 ]
  br label %131

131:                                              ; preds = %129, %52
  %132 = phi i32 [ 32, %52 ], [ %130, %129 ]
  br label %133

133:                                              ; preds = %131, %44
  %134 = phi i32 [ 28, %44 ], [ %132, %131 ]
  br label %135

135:                                              ; preds = %133, %36
  %136 = phi i32 [ 20, %36 ], [ %134, %133 ]
  br label %137

137:                                              ; preds = %135, %28
  %138 = phi i32 [ 20, %28 ], [ %136, %135 ]
  br label %139

139:                                              ; preds = %137, %20
  %140 = phi i32 [ 16, %20 ], [ %138, %137 ]
  %141 = zext i32 %140 to i64
  store i64 %141, ptr %12, align 8, !tbaa !13
  %142 = load i64, ptr %8, align 8, !tbaa !13
  %143 = load ptr, ptr %9, align 8, !tbaa !15
  store i64 %142, ptr %143, align 8, !tbaa !13
  %144 = load i64, ptr %8, align 8, !tbaa !13
  %145 = icmp ne i64 %144, 0
  br i1 %145, label %146, label %149

146:                                              ; preds = %139
  %147 = load ptr, ptr %7, align 8, !tbaa !11
  %148 = load i64, ptr %8, align 8, !tbaa !13
  call void @llvm.memset.p0.i64(ptr align 1 %147, i8 33, i64 %148, i1 false)
  br label %149

149:                                              ; preds = %146, %139
  %150 = load i64, ptr %8, align 8, !tbaa !13
  %151 = load i64, ptr %12, align 8, !tbaa !13
  %152 = icmp ult i64 %150, %151
  br i1 %152, label %153, label %154

153:                                              ; preds = %149
  store i32 -138, ptr %10, align 4, !tbaa !10
  br label %203

154:                                              ; preds = %149
  %155 = load ptr, ptr %6, align 8, !tbaa !3
  %156 = getelementptr inbounds nuw %struct.mbedtls_psa_hash_operation_t, ptr %155, i32 0, i32 0
  %157 = load i32, ptr %156, align 8, !tbaa !7
  switch i32 %157, label %199 [
    i32 33554435, label %158
    i32 33554436, label %163
    i32 33554437, label %168
    i32 33554440, label %173
    i32 33554441, label %178
    i32 33554442, label %183
    i32 33554443, label %188
    i32 33554448, label %193
    i32 33554449, label %193
    i32 33554450, label %193
    i32 33554451, label %193
  ]

158:                                              ; preds = %154
  %159 = load ptr, ptr %6, align 8, !tbaa !3
  %160 = getelementptr inbounds nuw %struct.mbedtls_psa_hash_operation_t, ptr %159, i32 0, i32 1
  %161 = load ptr, ptr %7, align 8, !tbaa !11
  %162 = call i32 @mbedtls_md5_finish(ptr noundef %160, ptr noundef %161)
  store i32 %162, ptr %11, align 4, !tbaa !10
  br label %200

163:                                              ; preds = %154
  %164 = load ptr, ptr %6, align 8, !tbaa !3
  %165 = getelementptr inbounds nuw %struct.mbedtls_psa_hash_operation_t, ptr %164, i32 0, i32 1
  %166 = load ptr, ptr %7, align 8, !tbaa !11
  %167 = call i32 @mbedtls_ripemd160_finish(ptr noundef %165, ptr noundef %166)
  store i32 %167, ptr %11, align 4, !tbaa !10
  br label %200

168:                                              ; preds = %154
  %169 = load ptr, ptr %6, align 8, !tbaa !3
  %170 = getelementptr inbounds nuw %struct.mbedtls_psa_hash_operation_t, ptr %169, i32 0, i32 1
  %171 = load ptr, ptr %7, align 8, !tbaa !11
  %172 = call i32 @mbedtls_sha1_finish(ptr noundef %170, ptr noundef %171)
  store i32 %172, ptr %11, align 4, !tbaa !10
  br label %200

173:                                              ; preds = %154
  %174 = load ptr, ptr %6, align 8, !tbaa !3
  %175 = getelementptr inbounds nuw %struct.mbedtls_psa_hash_operation_t, ptr %174, i32 0, i32 1
  %176 = load ptr, ptr %7, align 8, !tbaa !11
  %177 = call i32 @mbedtls_sha256_finish(ptr noundef %175, ptr noundef %176)
  store i32 %177, ptr %11, align 4, !tbaa !10
  br label %200

178:                                              ; preds = %154
  %179 = load ptr, ptr %6, align 8, !tbaa !3
  %180 = getelementptr inbounds nuw %struct.mbedtls_psa_hash_operation_t, ptr %179, i32 0, i32 1
  %181 = load ptr, ptr %7, align 8, !tbaa !11
  %182 = call i32 @mbedtls_sha256_finish(ptr noundef %180, ptr noundef %181)
  store i32 %182, ptr %11, align 4, !tbaa !10
  br label %200

183:                                              ; preds = %154
  %184 = load ptr, ptr %6, align 8, !tbaa !3
  %185 = getelementptr inbounds nuw %struct.mbedtls_psa_hash_operation_t, ptr %184, i32 0, i32 1
  %186 = load ptr, ptr %7, align 8, !tbaa !11
  %187 = call i32 @mbedtls_sha512_finish(ptr noundef %185, ptr noundef %186)
  store i32 %187, ptr %11, align 4, !tbaa !10
  br label %200

188:                                              ; preds = %154
  %189 = load ptr, ptr %6, align 8, !tbaa !3
  %190 = getelementptr inbounds nuw %struct.mbedtls_psa_hash_operation_t, ptr %189, i32 0, i32 1
  %191 = load ptr, ptr %7, align 8, !tbaa !11
  %192 = call i32 @mbedtls_sha512_finish(ptr noundef %190, ptr noundef %191)
  store i32 %192, ptr %11, align 4, !tbaa !10
  br label %200

193:                                              ; preds = %154, %154, %154, %154
  %194 = load ptr, ptr %6, align 8, !tbaa !3
  %195 = getelementptr inbounds nuw %struct.mbedtls_psa_hash_operation_t, ptr %194, i32 0, i32 1
  %196 = load ptr, ptr %7, align 8, !tbaa !11
  %197 = load i64, ptr %8, align 8, !tbaa !13
  %198 = call i32 @mbedtls_sha3_finish(ptr noundef %195, ptr noundef %196, i64 noundef %197)
  store i32 %198, ptr %11, align 4, !tbaa !10
  br label %200

199:                                              ; preds = %154
  store i32 -137, ptr %5, align 4
  store i32 1, ptr %13, align 4
  br label %211

200:                                              ; preds = %193, %188, %183, %178, %173, %168, %163, %158
  %201 = load i32, ptr %11, align 4, !tbaa !10
  %202 = call i32 @mbedtls_to_psa_error(i32 noundef %201)
  store i32 %202, ptr %10, align 4, !tbaa !10
  br label %203

203:                                              ; preds = %200, %153
  %204 = load i32, ptr %10, align 4, !tbaa !10
  %205 = icmp eq i32 %204, 0
  br i1 %205, label %206, label %209

206:                                              ; preds = %203
  %207 = load i64, ptr %12, align 8, !tbaa !13
  %208 = load ptr, ptr %9, align 8, !tbaa !15
  store i64 %207, ptr %208, align 8, !tbaa !13
  br label %209

209:                                              ; preds = %206, %203
  %210 = load i32, ptr %10, align 4, !tbaa !10
  store i32 %210, ptr %5, align 4
  store i32 1, ptr %13, align 4
  br label %211

211:                                              ; preds = %209, %199
  call void @llvm.lifetime.end.p0(i64 8, ptr %12) #4
  call void @llvm.lifetime.end.p0(i64 4, ptr %11) #4
  call void @llvm.lifetime.end.p0(i64 4, ptr %10) #4
  %212 = load i32, ptr %5, align 4
  ret i32 %212
}